; ModuleID = 'source-C-CXX/48/626.cpp'
source_filename = "source-C-CXX/48/626.cpp"
target datalayout = "e-m:e-p270:32:32-p271:32:32-p272:64:64-i64:64-f80:128-n8:16:32:64-S128"
target triple = "x86_64-pc-linux-gnu"

%"class.std::ios_base::Init" = type { i8 }
%"class.std::basic_istream" = type { i32 (...)**, i64, %"class.std::basic_ios" }
%"class.std::basic_ios" = type { %"class.std::ios_base", %"class.std::basic_ostream"*, i8, i8, %"class.std::basic_streambuf"*, %"class.std::ctype"*, %"class.std::num_put"*, %"class.std::num_get"* }
%"class.std::ios_base" = type { i32 (...)**, i64, i64, i32, i32, i32, %"struct.std::ios_base::_Callback_list"*, %"struct.std::ios_base::_Words", [8 x %"struct.std::ios_base::_Words"], i32, %"struct.std::ios_base::_Words"*, %"class.std::locale" }
%"struct.std::ios_base::_Callback_list" = type { %"struct.std::ios_base::_Callback_list"*, void (i32, %"class.std::ios_base"*, i32)*, i32, i32 }
%"struct.std::ios_base::_Words" = type { i8*, i64 }
%"class.std::locale" = type { %"class.std::locale::_Impl"* }
%"class.std::locale::_Impl" = type { i32, %"class.std::locale::facet"**, i64, %"class.std::locale::facet"**, i8** }
%"class.std::locale::facet" = type <{ i32 (...)**, i32, [4 x i8] }>
%"class.std::basic_ostream" = type { i32 (...)**, %"class.std::basic_ios" }
%"class.std::basic_streambuf" = type { i32 (...)**, i8*, i8*, i8*, i8*, i8*, i8*, %"class.std::locale" }
%"class.std::ctype" = type <{ %"class.std::locale::facet.base", [4 x i8], %struct.__locale_struct*, i8, [7 x i8], i32*, i32*, i16*, i8, [256 x i8], [256 x i8], i8, [6 x i8] }>
%"class.std::locale::facet.base" = type <{ i32 (...)**, i32 }>
%struct.__locale_struct = type { [13 x %struct.__locale_data*], i16*, i32*, i32*, [13 x i8*] }
%struct.__locale_data = type opaque
%"class.std::num_put" = type { %"class.std::locale::facet.base", [4 x i8] }
%"class.std::num_get" = type { %"class.std::locale::facet.base", [4 x i8] }

@_ZStL8__ioinit = internal global %"class.std::ios_base::Init" zeroinitializer, align 1
@__dso_handle = external hidden global i8
@_ZSt3cin = external global %"class.std::basic_istream", align 8
@_ZSt4cout = external global %"class.std::basic_ostream", align 8
@llvm.global_ctors = appending global [1 x { i32, void ()*, i8* }] [{ i32, void ()*, i8* } { i32 65535, void ()* @_GLOBAL__sub_I_626.cpp, i8* null }]

declare void @_ZNSt8ios_base4InitC1Ev(%"class.std::ios_base::Init"* nonnull align 1 dereferenceable(1)) unnamed_addr #0

; Function Attrs: nounwind
declare void @_ZNSt8ios_base4InitD1Ev(%"class.std::ios_base::Init"* nonnull align 1 dereferenceable(1)) unnamed_addr #1

; Function Attrs: nofree nounwind
declare i32 @__cxa_atexit(void (i8*)*, i8*, i8*) local_unnamed_addr #2

; Function Attrs: mustprogress norecurse sspstrong uwtable
define dso_local i32 @main() local_unnamed_addr #3 {
  %1 = alloca i8, align 1
  %2 = alloca [500 x i8], align 16
  %3 = alloca [100 x i32], align 16
  %4 = alloca [500 x i32], align 16
  %5 = getelementptr inbounds [500 x i8], [500 x i8]* %2, i64 0, i64 0
  call void @llvm.lifetime.start.p0i8(i64 500, i8* nonnull %5) #9
  call void @_ZSt17__istream_extractRSiPcl(%"class.std::basic_istream"* nonnull align 8 dereferenceable(16) @_ZSt3cin, i8* nonnull %5, i64 500)
  %6 = call i64 @strlen(i8* noundef nonnull %5) #10
  %7 = trunc i64 %6 to i32
  %8 = bitcast [100 x i32]* %3 to i8*
  call void @llvm.lifetime.start.p0i8(i64 400, i8* nonnull %8) #9
  call void @llvm.memset.p0i8.i64(i8* noundef nonnull align 16 dereferenceable(400) %8, i8 0, i64 400, i1 false)
  %9 = bitcast [500 x i32]* %4 to i8*
  call void @llvm.lifetime.start.p0i8(i64 2000, i8* nonnull %9) #9
  call void @llvm.memset.p0i8.i64(i8* noundef nonnull align 16 dereferenceable(2000) %9, i8 0, i64 2000, i1 false)
  %10 = icmp slt i32 %7, 2
  br i1 %10, label %81, label %11

11:                                               ; preds = %0
  %12 = add nsw i32 %7, -1
  %13 = shl i64 %6, 32
  %14 = ashr exact i64 %13, 32
  %15 = add nsw i32 %7, -2
  %16 = lshr i32 %15, 1
  %17 = add nuw nsw i32 %16, 2
  %18 = zext i32 %17 to i64
  br label %19

19:                                               ; preds = %11, %38
  %20 = phi i64 [ 2, %11 ], [ %41, %38 ]
  %21 = phi i64 [ 1, %11 ], [ %42, %38 ]
  %22 = phi i32 [ %12, %11 ], [ %43, %38 ]
  %23 = phi i32 [ 0, %11 ], [ %40, %38 ]
  %24 = phi i32 [ 0, %11 ], [ %39, %38 ]
  %25 = icmp slt i64 %14, %20
  br i1 %25, label %38, label %26

26:                                               ; preds = %19
  %27 = zext i32 %22 to i64
  %28 = trunc i64 %20 to i32
  br label %33

29:                                               ; preds = %38
  %30 = icmp sgt i32 %39, 0
  br i1 %30, label %31, label %81

31:                                               ; preds = %29
  %32 = zext i32 %39 to i64
  br label %71

33:                                               ; preds = %26, %66
  %34 = phi i64 [ 0, %26 ], [ %69, %66 ]
  %35 = phi i32 [ %23, %26 ], [ %68, %66 ]
  %36 = phi i32 [ %24, %26 ], [ %67, %66 ]
  %37 = add nuw nsw i64 %34, %20
  br label %48

38:                                               ; preds = %66, %19
  %39 = phi i32 [ %24, %19 ], [ %67, %66 ]
  %40 = phi i32 [ %23, %19 ], [ %68, %66 ]
  %41 = add nuw nsw i64 %20, 2
  %42 = add nuw nsw i64 %21, 1
  %43 = add i32 %22, -2
  %44 = icmp eq i64 %42, %18
  br i1 %44, label %29, label %19, !llvm.loop !5

45:                                               ; preds = %48
  %46 = add nuw nsw i64 %49, 1
  %47 = icmp eq i64 %46, %21
  br i1 %47, label %58, label %48, !llvm.loop !7

48:                                               ; preds = %33, %45
  %49 = phi i64 [ 0, %33 ], [ %46, %45 ]
  %50 = add nuw nsw i64 %49, %34
  %51 = getelementptr inbounds [500 x i8], [500 x i8]* %2, i64 0, i64 %50
  %52 = load i8, i8* %51, align 1, !tbaa !8
  %53 = xor i64 %49, -1
  %54 = add nsw i64 %37, %53
  %55 = getelementptr inbounds [500 x i8], [500 x i8]* %2, i64 0, i64 %54
  %56 = load i8, i8* %55, align 1, !tbaa !8
  %57 = icmp eq i8 %52, %56
  br i1 %57, label %45, label %66

58:                                               ; preds = %45
  %59 = sext i32 %36 to i64
  %60 = getelementptr inbounds [100 x i32], [100 x i32]* %3, i64 0, i64 %59
  %61 = trunc i64 %34 to i32
  store i32 %61, i32* %60, align 4, !tbaa !11
  %62 = add nsw i32 %36, 1
  %63 = sext i32 %35 to i64
  %64 = getelementptr inbounds [500 x i32], [500 x i32]* %4, i64 0, i64 %63
  store i32 %28, i32* %64, align 4, !tbaa !11
  %65 = add nsw i32 %35, 1
  br label %66

66:                                               ; preds = %48, %58
  %67 = phi i32 [ %62, %58 ], [ %36, %48 ]
  %68 = phi i32 [ %65, %58 ], [ %35, %48 ]
  %69 = add nuw nsw i64 %34, 1
  %70 = icmp eq i64 %69, %27
  br i1 %70, label %38, label %33, !llvm.loop !13

71:                                               ; preds = %31, %106
  %72 = phi i64 [ 0, %31 ], [ %110, %106 ]
  %73 = getelementptr inbounds [500 x i32], [500 x i32]* %4, i64 0, i64 %72
  %74 = load i32, i32* %73, align 4, !tbaa !11
  %75 = icmp sgt i32 %74, 0
  br i1 %75, label %76, label %82

76:                                               ; preds = %71
  %77 = getelementptr inbounds [100 x i32], [100 x i32]* %3, i64 0, i64 %72
  %78 = load i32, i32* %77, align 4, !tbaa !11
  %79 = sext i32 %78 to i64
  %80 = zext i32 %74 to i64
  br label %112

81:                                               ; preds = %106, %0, %29
  call void @llvm.lifetime.end.p0i8(i64 2000, i8* nonnull %9) #9
  call void @llvm.lifetime.end.p0i8(i64 400, i8* nonnull %8) #9
  call void @llvm.lifetime.end.p0i8(i64 500, i8* nonnull %5) #9
  ret i32 0

82:                                               ; preds = %112, %71
  %83 = load i8*, i8** bitcast (%"class.std::basic_ostream"* @_ZSt4cout to i8**), align 8, !tbaa !14
  %84 = getelementptr i8, i8* %83, i64 -24
  %85 = bitcast i8* %84 to i64*
  %86 = load i64, i64* %85, align 8
  %87 = add nsw i64 %86, 240
  %88 = getelementptr inbounds i8, i8* bitcast (%"class.std::basic_ostream"* @_ZSt4cout to i8*), i64 %87
  %89 = bitcast i8* %88 to %"class.std::ctype"**
  %90 = load %"class.std::ctype"*, %"class.std::ctype"** %89, align 8, !tbaa !16
  %91 = icmp eq %"class.std::ctype"* %90, null
  br i1 %91, label %92, label %93

92:                                               ; preds = %82
  call void @_ZSt16__throw_bad_castv() #11
  unreachable

93:                                               ; preds = %82
  %94 = getelementptr inbounds %"class.std::ctype", %"class.std::ctype"* %90, i64 0, i32 8
  %95 = load i8, i8* %94, align 8, !tbaa !20
  %96 = icmp eq i8 %95, 0
  br i1 %96, label %100, label %97

97:                                               ; preds = %93
  %98 = getelementptr inbounds %"class.std::ctype", %"class.std::ctype"* %90, i64 0, i32 9, i64 10
  %99 = load i8, i8* %98, align 1, !tbaa !8
  br label %106

100:                                              ; preds = %93
  call void @_ZNKSt5ctypeIcE13_M_widen_initEv(%"class.std::ctype"* nonnull align 8 dereferenceable(570) %90)
  %101 = bitcast %"class.std::ctype"* %90 to i8 (%"class.std::ctype"*, i8)***
  %102 = load i8 (%"class.std::ctype"*, i8)**, i8 (%"class.std::ctype"*, i8)*** %101, align 8, !tbaa !14
  %103 = getelementptr inbounds i8 (%"class.std::ctype"*, i8)*, i8 (%"class.std::ctype"*, i8)** %102, i64 6
  %104 = load i8 (%"class.std::ctype"*, i8)*, i8 (%"class.std::ctype"*, i8)** %103, align 8
  %105 = call signext i8 %104(%"class.std::ctype"* nonnull align 8 dereferenceable(570) %90, i8 signext 10)
  br label %106

106:                                              ; preds = %97, %100
  %107 = phi i8 [ %99, %97 ], [ %105, %100 ]
  %108 = call nonnull align 8 dereferenceable(8) %"class.std::basic_ostream"* @_ZNSo3putEc(%"class.std::basic_ostream"* nonnull align 8 dereferenceable(8) @_ZSt4cout, i8 signext %107)
  %109 = call nonnull align 8 dereferenceable(8) %"class.std::basic_ostream"* @_ZNSo5flushEv(%"class.std::basic_ostream"* nonnull align 8 dereferenceable(8) %108)
  %110 = add nuw nsw i64 %72, 1
  %111 = icmp eq i64 %110, %32
  br i1 %111, label %81, label %71, !llvm.loop !22

112:                                              ; preds = %76, %112
  %113 = phi i64 [ 0, %76 ], [ %118, %112 ]
  %114 = add nsw i64 %113, %79
  %115 = getelementptr inbounds [500 x i8], [500 x i8]* %2, i64 0, i64 %114
  %116 = load i8, i8* %115, align 1, !tbaa !8
  call void @llvm.lifetime.start.p0i8(i64 1, i8* nonnull %1)
  store i8 %116, i8* %1, align 1, !tbaa !8
  %117 = call nonnull align 8 dereferenceable(8) %"class.std::basic_ostream"* @_ZSt16__ostream_insertIcSt11char_traitsIcEERSt13basic_ostreamIT_T0_ES6_PKS3_l(%"class.std::basic_ostream"* nonnull align 8 dereferenceable(8) @_ZSt4cout, i8* nonnull %1, i64 1)
  call void @llvm.lifetime.end.p0i8(i64 1, i8* nonnull %1)
  %118 = add nuw nsw i64 %113, 1
  %119 = icmp eq i64 %118, %80
  br i1 %119, label %82, label %112, !llvm.loop !23
}

; Function Attrs: argmemonly mustprogress nofree nosync nounwind willreturn
declare void @llvm.lifetime.start.p0i8(i64 immarg, i8* nocapture) #4

; Function Attrs: argmemonly mustprogress nofree nounwind readonly willreturn
declare i64 @strlen(i8* nocapture) local_unnamed_addr #5

; Function Attrs: argmemonly mustprogress nofree nounwind willreturn writeonly
declare void @llvm.memset.p0i8.i64(i8* nocapture writeonly, i8, i64, i1 immarg) #6

; Function Attrs: argmemonly mustprogress nofree nosync nounwind willreturn
declare void @llvm.lifetime.end.p0i8(i64 immarg, i8* nocapture) #4

declare void @_ZSt17__istream_extractRSiPcl(%"class.std::basic_istream"* nonnull align 8 dereferenceable(16), i8*, i64) local_unnamed_addr #0

declare nonnull align 8 dereferenceable(8) %"class.std::basic_ostream"* @_ZSt16__ostream_insertIcSt11char_traitsIcEERSt13basic_ostreamIT_T0_ES6_PKS3_l(%"class.std::basic_ostream"* nonnull align 8 dereferenceable(8), i8*, i64) local_unnamed_addr #0

declare nonnull align 8 dereferenceable(8) %"class.std::basic_ostream"* @_ZNSo3putEc(%"class.std::basic_ostream"* nonnull align 8 dereferenceable(8), i8 signext) local_unnamed_addr #0

declare nonnull align 8 dereferenceable(8) %"class.std::basic_ostream"* @_ZNSo5flushEv(%"class.std::basic_ostream"* nonnull align 8 dereferenceable(8)) local_unnamed_addr #0

; Function Attrs: noreturn
declare void @_ZSt16__throw_bad_castv() local_unnamed_addr #7

declare void @_ZNKSt5ctypeIcE13_M_widen_initEv(%"class.std::ctype"* nonnull align 8 dereferenceable(570)) local_unnamed_addr #0

; Function Attrs: sspstrong uwtable
define internal void @_GLOBAL__sub_I_626.cpp() #8 section ".text.startup" {
  tail call void @_ZNSt8ios_base4InitC1Ev(%"class.std::ios_base::Init"* nonnull align 1 dereferenceable(1) @_ZStL8__ioinit)
  %1 = tail call i32 @__cxa_atexit(void (i8*)* bitcast (void (%"class.std::ios_base::Init"*)* @_ZNSt8ios_base4InitD1Ev to void (i8*)*), i8* getelementptr inbounds (%"class.std::ios_base::Init", %"class.std::ios_base::Init"* @_ZStL8__ioinit, i64 0, i32 0), i8* nonnull @__dso_handle) #9
  ret void
}


!llvm.module.flags = !{!0, !1, !2, !3}
!llvm.ident = !{!4}

!0 = !{i32 1, !"wchar_size", i32 4}
!1 = !{i32 7, !"PIC Level", i32 2}
!2 = !{i32 7, !"PIE Level", i32 2}
!3 = !{i32 7, !"uwtable", i32 1}
!4 = !{!"clang version 13.0.0"}
!5 = distinct !{!5, !6}
!6 = !{!"llvm.loop.mustprogress"}
!7 = distinct !{!7, !6}
!8 = !{!9, !9, i64 0}
!9 = !{!"omnipotent char", !10, i64 0}
!10 = !{!"Simple C++ TBAA"}
!11 = !{!12, !12, i64 0}
!12 = !{!"int", !9, i64 0}
!13 = distinct !{!13, !6}
!14 = !{!15, !15, i64 0}
!15 = !{!"vtable pointer", !10, i64 0}
!16 = !{!17, !18, i64 240}
!17 = !{!"_ZTSSt9basic_iosIcSt11char_traitsIcEE", !18, i64 216, !9, i64 224, !19, i64 225, !18, i64 232, !18, i64 240, !18, i64 248, !18, i64 256}
!18 = !{!"any pointer", !9, i64 0}
!19 = !{!"bool", !9, i64 0}
!20 = !{!21, !9, i64 56}
!21 = !{!"_ZTSSt5ctypeIcE", !18, i64 16, !19, i64 24, !18, i64 32, !18, i64 40, !18, i64 48, !9, i64 56, !9, i64 57, !9, i64 313, !9, i64 569}
!22 = distinct !{!22, !6}
!23 = distinct !{!23, !6}
